target datalayout = "e-m:e-p270:32:32-p271:32:32-p272:64:64-i64:64-i128:128-f80:128-n8:16:32:64-S128"
target triple = "x86_64-pc-linux-gnu"

%struct.SDL_HashTable = type { ptr, ptr, ptr, ptr, ptr, ptr, i32, i32, i32 }
%struct.SDL_HashItem = type { ptr, ptr, i32, i32 }

@.str = private unnamed_addr constant [26 x i8] c"Parameter '%s' is invalid\00", align 1
@.str.1 = private unnamed_addr constant [6 x i8] c"table\00", align 1

; Function Attrs: nounwind uwtable
define internal ptr @find_item(ptr noundef %0, ptr noundef %1, i32 noundef %2, ptr noundef %3, ptr noundef %4) #0 {
  %6 = alloca ptr, align 8
  %7 = alloca ptr, align 8
  %8 = alloca ptr, align 8
  %9 = alloca i32, align 4
  %10 = alloca ptr, align 8
  %11 = alloca ptr, align 8
  %12 = alloca i32, align 4
  %13 = alloca i32, align 4
  %14 = alloca ptr, align 8
  %15 = alloca ptr, align 8
  %16 = alloca i32, align 4
  %17 = alloca i32, align 4
  %18 = alloca i32, align 4
  store ptr %0, ptr %7, align 8
  store ptr %1, ptr %8, align 8
  store i32 %2, ptr %9, align 4
  store ptr %3, ptr %10, align 8
  store ptr %4, ptr %11, align 8
  call void @llvm.lifetime.start.p0(i64 4, ptr %12) #9
  %19 = load ptr, ptr %7, align 8
  %20 = getelementptr inbounds nuw %struct.SDL_HashTable, ptr %19, i32 0, i32 6
  %21 = load i32, ptr %20, align 8
  store i32 %21, ptr %12, align 4
  call void @llvm.lifetime.start.p0(i64 4, ptr %13) #9
  %22 = load ptr, ptr %7, align 8
  %23 = getelementptr inbounds nuw %struct.SDL_HashTable, ptr %22, i32 0, i32 7
  %24 = load i32, ptr %23, align 4
  store i32 %24, ptr %13, align 4
  call void @llvm.lifetime.start.p0(i64 8, ptr %14) #9
  %25 = load ptr, ptr %7, align 8
  %26 = getelementptr inbounds nuw %struct.SDL_HashTable, ptr %25, i32 0, i32 1
  %27 = load ptr, ptr %26, align 8
  store ptr %27, ptr %14, align 8
  br label %28

28:                                               ; preds = %92, %5
  br label %29

29:                                               ; preds = %28
  call void @llvm.lifetime.start.p0(i64 8, ptr %15) #9
  %30 = load ptr, ptr %14, align 8
  %31 = load ptr, ptr %10, align 8
  %32 = load i32, ptr %31, align 4
  %33 = zext i32 %32 to i64
  %34 = getelementptr inbounds nuw %struct.SDL_HashItem, ptr %30, i64 %33
  store ptr %34, ptr %15, align 8
  call void @llvm.lifetime.start.p0(i64 4, ptr %16) #9
  %35 = load ptr, ptr %15, align 8
  %36 = getelementptr inbounds nuw %struct.SDL_HashItem, ptr %35, i32 0, i32 2
  %37 = load i32, ptr %36, align 8
  store i32 %37, ptr %16, align 4
  %38 = load ptr, ptr %15, align 8
  %39 = getelementptr inbounds nuw %struct.SDL_HashItem, ptr %38, i32 0, i32 3
  %40 = load i32, ptr %39, align 4
  %41 = lshr i32 %40, 31
  %42 = icmp ne i32 %41, 0
  br i1 %42, label %44, label %43

43:                                               ; preds = %29
  store ptr null, ptr %6, align 8
  store i32 1, ptr %17, align 4
  br label %90

44:                                               ; preds = %29
  %45 = load i32, ptr %16, align 4
  %46 = load i32, ptr %9, align 4
  %47 = icmp eq i32 %45, %46
  br i1 %47, label %48, label %62

48:                                               ; preds = %44
  %49 = load ptr, ptr %7, align 8
  %50 = getelementptr inbounds nuw %struct.SDL_HashTable, ptr %49, i32 0, i32 3
  %51 = load ptr, ptr %50, align 8
  %52 = load ptr, ptr %7, align 8
  %53 = getelementptr inbounds nuw %struct.SDL_HashTable, ptr %52, i32 0, i32 5
  %54 = load ptr, ptr %53, align 8
  %55 = load ptr, ptr %15, align 8
  %56 = getelementptr inbounds nuw %struct.SDL_HashItem, ptr %55, i32 0, i32 0
  %57 = load ptr, ptr %56, align 8
  %58 = load ptr, ptr %8, align 8
  %59 = call zeroext i1 %51(ptr noundef %54, ptr noundef %57, ptr noundef %58)
  br i1 %59, label %60, label %62

60:                                               ; preds = %48
  %61 = load ptr, ptr %15, align 8
  store ptr %61, ptr %6, align 8
  store i32 1, ptr %17, align 4
  br label %90

62:                                               ; preds = %48, %44
  call void @llvm.lifetime.start.p0(i64 4, ptr %18) #9
  %63 = load ptr, ptr %15, align 8
  %64 = getelementptr inbounds nuw %struct.SDL_HashItem, ptr %63, i32 0, i32 3
  %65 = load i32, ptr %64, align 4
  %66 = and i32 %65, 2147483647
  store i32 %66, ptr %18, align 4
  br label %67

67:                                               ; preds = %62
  br label %68

68:                                               ; preds = %67
  br label %69

69:                                               ; preds = %68
  %70 = load ptr, ptr %11, align 8
  %71 = load i32, ptr %70, align 4
  %72 = load i32, ptr %18, align 4
  %73 = icmp ugt i32 %71, %72
  br i1 %73, label %74, label %75

74:                                               ; preds = %69
  store ptr null, ptr %6, align 8
  store i32 1, ptr %17, align 4
  br label %89

75:                                               ; preds = %69
  %76 = load ptr, ptr %11, align 8
  %77 = load i32, ptr %76, align 4
  %78 = add i32 %77, 1
  store i32 %78, ptr %76, align 4
  %79 = load i32, ptr %13, align 4
  %80 = icmp ugt i32 %78, %79
  br i1 %80, label %81, label %82

81:                                               ; preds = %75
  store ptr null, ptr %6, align 8
  store i32 1, ptr %17, align 4
  br label %89

82:                                               ; preds = %75
  %83 = load ptr, ptr %10, align 8
  %84 = load i32, ptr %83, align 4
  %85 = add i32 %84, 1
  %86 = load i32, ptr %12, align 4
  %87 = and i32 %85, %86
  %88 = load ptr, ptr %10, align 8
  store i32 %87, ptr %88, align 4
  store i32 0, ptr %17, align 4
  br label %89

89:                                               ; preds = %82, %81, %74
  call void @llvm.lifetime.end.p0(i64 4, ptr %18) #9
  br label %90

90:                                               ; preds = %89, %60, %43
  call void @llvm.lifetime.end.p0(i64 4, ptr %16) #9
  call void @llvm.lifetime.end.p0(i64 8, ptr %15) #9
  %91 = load i32, ptr %17, align 4
  switch i32 %91, label %93 [
    i32 0, label %92
  ]

92:                                               ; preds = %90
  br label %28

93:                                               ; preds = %90
  call void @llvm.lifetime.end.p0(i64 8, ptr %14) #9
  call void @llvm.lifetime.end.p0(i64 4, ptr %13) #9
  call void @llvm.lifetime.end.p0(i64 4, ptr %12) #9
  %94 = load ptr, ptr %6, align 8
  ret ptr %94
}

; Function Attrs: nounwind uwtable
define internal ptr @find_first_item(ptr noundef %0, ptr noundef %1, i32 noundef %2) #0 {
  %4 = alloca ptr, align 8
  %5 = alloca ptr, align 8
  %6 = alloca i32, align 4
  %7 = alloca i32, align 4
  %8 = alloca i32, align 4
  store ptr %0, ptr %4, align 8
  store ptr %1, ptr %5, align 8
  store i32 %2, ptr %6, align 4
  call void @llvm.lifetime.start.p0(i64 4, ptr %7) #9
  %9 = load i32, ptr %6, align 4
  %10 = load ptr, ptr %4, align 8
  %11 = getelementptr inbounds nuw %struct.SDL_HashTable, ptr %10, i32 0, i32 6
  %12 = load i32, ptr %11, align 8
  %13 = and i32 %9, %12
  store i32 %13, ptr %7, align 4
  call void @llvm.lifetime.start.p0(i64 4, ptr %8) #9
  store i32 0, ptr %8, align 4
  %14 = load ptr, ptr %4, align 8
  %15 = load ptr, ptr %5, align 8
  %16 = load i32, ptr %6, align 4
  %17 = call ptr @find_item(ptr noundef %14, ptr noundef %15, i32 noundef %16, ptr noundef %7, ptr noundef %8)
  call void @llvm.lifetime.end.p0(i64 4, ptr %8) #9
  call void @llvm.lifetime.end.p0(i64 4, ptr %7) #9
  ret ptr %17
}

; Function Attrs: inlinehint nounwind uwtable
define internal i32 @calc_hash(ptr noundef %0, ptr noundef %1) #4 {
  %3 = alloca ptr, align 8
  %4 = alloca ptr, align 8
  %5 = alloca i32, align 4
  store ptr %0, ptr %3, align 8
  store ptr %1, ptr %4, align 8
  call void @llvm.lifetime.start.p0(i64 4, ptr %5) #9
  store i32 -1640531535, ptr %5, align 4
  %6 = load ptr, ptr %3, align 8
  %7 = getelementptr inbounds nuw %struct.SDL_HashTable, ptr %6, i32 0, i32 2
  %8 = load ptr, ptr %7, align 8
  %9 = load ptr, ptr %3, align 8
  %10 = getelementptr inbounds nuw %struct.SDL_HashTable, ptr %9, i32 0, i32 5
  %11 = load ptr, ptr %10, align 8
  %12 = load ptr, ptr %4, align 8
  %13 = call i32 %8(ptr noundef %11, ptr noundef %12)
  %14 = mul i32 %13, -1640531535
  call void @llvm.lifetime.end.p0(i64 4, ptr %5) #9
  ret i32 %14
}

; Function Attrs: nounwind uwtable
define hidden zeroext i1 @SDL_FindInHashTable(ptr noundef %0, ptr noundef %1, ptr noundef %2) #0 {
  %4 = alloca i1, align 1
  %5 = alloca ptr, align 8
  %6 = alloca ptr, align 8
  %7 = alloca ptr, align 8
  %8 = alloca i8, align 1
  %9 = alloca i32, align 4
  %10 = alloca ptr, align 8
  store ptr %0, ptr %5, align 8
  store ptr %1, ptr %6, align 8
  store ptr %2, ptr %7, align 8
  %11 = load ptr, ptr %5, align 8
  %12 = icmp ne ptr %11, null
  br i1 %12, label %20, label %13

13:                                               ; preds = %3
  %14 = load ptr, ptr %7, align 8
  %15 = icmp ne ptr %14, null
  br i1 %15, label %16, label %18

16:                                               ; preds = %13
  %17 = load ptr, ptr %7, align 8
  store ptr null, ptr %17, align 8
  br label %18

18:                                               ; preds = %16, %13
  %19 = call zeroext i1 (ptr, ...) @SDL_SetError_REAL(ptr noundef @.str, ptr noundef @.str.1)
  store i1 %19, ptr %4, align 1
  br label %48

20:                                               ; preds = %3
  %21 = load ptr, ptr %5, align 8
  %22 = getelementptr inbounds nuw %struct.SDL_HashTable, ptr %21, i32 0, i32 0
  %23 = load ptr, ptr %22, align 8
  call void @SDL_LockRWLockForReading_REAL(ptr noundef %23)
  call void @llvm.lifetime.start.p0(i64 1, ptr %8) #9
  store i8 0, ptr %8, align 1
  call void @llvm.lifetime.start.p0(i64 4, ptr %9) #9
  %24 = load ptr, ptr %5, align 8
  %25 = load ptr, ptr %6, align 8
  %26 = call i32 @calc_hash(ptr noundef %24, ptr noundef %25)
  store i32 %26, ptr %9, align 4
  call void @llvm.lifetime.start.p0(i64 8, ptr %10) #9
  %27 = load ptr, ptr %5, align 8
  %28 = load ptr, ptr %6, align 8
  %29 = load i32, ptr %9, align 4
  %30 = call ptr @find_first_item(ptr noundef %27, ptr noundef %28, i32 noundef %29)
  store ptr %30, ptr %10, align 8
  %31 = load ptr, ptr %10, align 8
  %32 = icmp ne ptr %31, null
  br i1 %32, label %33, label %42

33:                                               ; preds = %20
  %34 = load ptr, ptr %7, align 8
  %35 = icmp ne ptr %34, null
  br i1 %35, label %36, label %41

36:                                               ; preds = %33
  %37 = load ptr, ptr %10, align 8
  %38 = getelementptr inbounds nuw %struct.SDL_HashItem, ptr %37, i32 0, i32 1
  %39 = load ptr, ptr %38, align 8
  %40 = load ptr, ptr %7, align 8
  store ptr %39, ptr %40, align 8
  br label %41

41:                                               ; preds = %36, %33
  store i8 1, ptr %8, align 1
  br label %42

42:                                               ; preds = %41, %20
  %43 = load ptr, ptr %5, align 8
  %44 = getelementptr inbounds nuw %struct.SDL_HashTable, ptr %43, i32 0, i32 0
  %45 = load ptr, ptr %44, align 8
  call void @SDL_UnlockRWLock_REAL(ptr noundef %45)
  %46 = load i8, ptr %8, align 1, !range !3, !noundef !4
  %47 = trunc i8 %46 to i1
  store i1 %47, ptr %4, align 1
  call void @llvm.lifetime.end.p0(i64 8, ptr %10) #9
  call void @llvm.lifetime.end.p0(i64 4, ptr %9) #9
  call void @llvm.lifetime.end.p0(i64 1, ptr %8) #9
  br label %48

48:                                               ; preds = %42, %18
  %49 = load i1, ptr %4, align 1
  ret i1 %49
}