; Function Attrs: nounwind uwtable
define hidden zeroext i1 @SDL_FindInHashTable(ptr noundef readonly captures(address_is_null) %0, ptr noundef %1, ptr noundef writeonly captures(address_is_null) %2) local_unnamed_addr #0 {
  %.not = icmp eq ptr %0, null
  br i1 %.not, label %4, label %8

4:                                                ; preds = %3
  %.not19 = icmp eq ptr %2, null
  br i1 %.not19, label %6, label %5

5:                                                ; preds = %4
  store ptr null, ptr %2, align 8
  br label %6

6:                                                ; preds = %5, %4
  %7 = tail call zeroext i1 (ptr, ...) @SDL_SetError_REAL(ptr noundef nonnull @.str, ptr noundef nonnull @.str.1) #10
  br label %54

8:                                                ; preds = %3
  %9 = load ptr, ptr %0, align 8
  tail call void @SDL_LockRWLockForReading_REAL(ptr noundef %9) #10
  %10 = getelementptr i8, ptr %0, i64 16
  %.val = load ptr, ptr %10, align 8
  %11 = getelementptr i8, ptr %0, i64 40
  %.val22 = load ptr, ptr %11, align 8
  %12 = tail call i32 %.val(ptr noundef %.val22, ptr noundef %1) #10
  %13 = mul i32 %12, -1640531535
  %14 = getelementptr inbounds nuw i8, ptr %0, i64 48
  %15 = load i32, ptr %14, align 8
  %16 = and i32 %15, %13
  %17 = getelementptr inbounds nuw i8, ptr %0, i64 52
  %18 = load i32, ptr %17, align 4
  %19 = getelementptr inbounds nuw i8, ptr %0, i64 8
  %20 = load ptr, ptr %19, align 8
  %21 = zext i32 %16 to i64
  %22 = getelementptr inbounds nuw %struct.SDL_HashItem, ptr %20, i64 %21
  %23 = getelementptr inbounds nuw i8, ptr %22, i64 20
  %24 = load i32, ptr %23, align 4
  %.not30.i.i = icmp sgt i32 %24, -1
  br i1 %.not30.i.i, label %find_first_item.exit.thread, label %.lr.ph.i.i

.lr.ph.i.i:                                       ; preds = %8
  %25 = getelementptr inbounds nuw i8, ptr %0, i64 24
  br label %26

26:                                               ; preds = %42, %.lr.ph.i.i
  %.06.i = phi i32 [ %16, %.lr.ph.i.i ], [ %45, %42 ]
  %.0.i = phi i32 [ 0, %.lr.ph.i.i ], [ %43, %42 ]
  %27 = phi i32 [ %24, %.lr.ph.i.i ], [ %49, %42 ]
  %28 = phi ptr [ %23, %.lr.ph.i.i ], [ %48, %42 ]
  %29 = phi ptr [ %22, %.lr.ph.i.i ], [ %47, %42 ]
  %30 = getelementptr inbounds nuw i8, ptr %29, i64 16
  %31 = load i32, ptr %30, align 8
  %32 = icmp eq i32 %31, %13
  br i1 %32, label %33, label %38

33:                                               ; preds = %26
  %34 = load ptr, ptr %25, align 8
  %35 = load ptr, ptr %11, align 8
  %36 = load ptr, ptr %29, align 8
  %37 = tail call zeroext i1 %34(ptr noundef %35, ptr noundef %36, ptr noundef %1) #10
  br i1 %37, label %find_first_item.exit, label %._crit_edge37.i.i

._crit_edge37.i.i:                                ; preds = %33
  %.pre.i.i = load i32, ptr %28, align 4
  br label %38

38:                                               ; preds = %._crit_edge37.i.i, %26
  %39 = phi i32 [ %.pre.i.i, %._crit_edge37.i.i ], [ %27, %26 ]
  %40 = and i32 %39, 2147483647
  %41 = icmp ule i32 %.0.i, %40
  %.not26.i.i = icmp ult i32 %.0.i, %18
  %or.cond.i = select i1 %41, i1 %.not26.i.i, i1 false
  br i1 %or.cond.i, label %42, label %find_first_item.exit.thread

42:                                               ; preds = %38
  %43 = add nuw i32 %.0.i, 1
  %44 = add i32 %.06.i, 1
  %45 = and i32 %44, %15
  %46 = zext i32 %45 to i64
  %47 = getelementptr inbounds nuw %struct.SDL_HashItem, ptr %20, i64 %46
  %48 = getelementptr inbounds nuw i8, ptr %47, i64 20
  %49 = load i32, ptr %48, align 4
  %.not.i.i = icmp sgt i32 %49, -1
  br i1 %.not.i.i, label %find_first_item.exit.thread, label %26

find_first_item.exit:                             ; preds = %33
  %.not21 = icmp eq ptr %2, null
  br i1 %.not21, label %find_first_item.exit.thread, label %50

50:                                               ; preds = %find_first_item.exit
  %51 = getelementptr inbounds nuw i8, ptr %29, i64 8
  %52 = load ptr, ptr %51, align 8
  store ptr %52, ptr %2, align 8
  br label %find_first_item.exit.thread

find_first_item.exit.thread:                      ; preds = %42, %38, %8, %50, %find_first_item.exit
  %.not2028 = phi i1 [ true, %50 ], [ true, %find_first_item.exit ], [ false, %8 ], [ false, %38 ], [ false, %42 ]
  %53 = load ptr, ptr %0, align 8
  tail call void @SDL_UnlockRWLock_REAL(ptr noundef %53) #10
  br label %54

54:                                               ; preds = %find_first_item.exit.thread, %6
  %.0 = phi i1 [ %.not2028, %find_first_item.exit.thread ], [ %7, %6 ]
  ret i1 %.0
}